target datalayout = "e-m:e-p270:32:32-p271:32:32-p272:64:64-i64:64-i128:128-f80:128-n8:16:32:64-S128"
target triple = "x86_64-pc-linux-gnu"

@.str = private unnamed_addr constant [126 x i8] c"generated/home/dtcxzyw/WorkSpace/Projects/compilers/llvm-opt-benchmark/bench/libquic/libquic/boringssl/crypto/x509/x509_vfy.c\00", align 1

; Function Attrs: nounwind uwtable
define hidden ptr @X509_STORE_CTX_new() #0 {
  %1 = alloca ptr, align 8
  %2 = alloca ptr, align 8
  %3 = alloca i32, align 4
  call void @llvm.lifetime.start.p0(i64 8, ptr %2) #8
  %4 = call noalias ptr @malloc(i64 noundef 240) #10
  store ptr %4, ptr %2, align 8, !tbaa !6
  %5 = load ptr, ptr %2, align 8, !tbaa !6
  %6 = icmp ne ptr %5, null
  br i1 %6, label %8, label %7

7:                                                ; preds = %0
  call void @ERR_put_error(i32 noundef 11, i32 noundef 0, i32 noundef 65, ptr noundef @.str, i32 noundef 2197)
  store ptr null, ptr %1, align 8
  store i32 1, ptr %3, align 4
  br label %11

8:                                                ; preds = %0
  %9 = load ptr, ptr %2, align 8, !tbaa !6
  call void @llvm.memset.p0.i64(ptr align 8 %9, i8 0, i64 240, i1 false)
  %10 = load ptr, ptr %2, align 8, !tbaa !6
  store ptr %10, ptr %1, align 8
  store i32 1, ptr %3, align 4
  br label %11

11:                                               ; preds = %8, %7
  call void @llvm.lifetime.end.p0(i64 8, ptr %2) #8
  %12 = load ptr, ptr %1, align 8
  ret ptr %12
}