; Function Attrs: nounwind uwtable
define hidden noalias noundef ptr @X509_STORE_CTX_new() local_unnamed_addr #0 {
  %calloc = tail call dereferenceable_or_null(240) ptr @calloc(i64 1, i64 240)
  %.not = icmp eq ptr %calloc, null
  br i1 %.not, label %1, label %2

1:                                                ; preds = %0
  tail call void @ERR_put_error(i32 noundef 11, i32 noundef 0, i32 noundef 65, ptr noundef nonnull @.str, i32 noundef 2197) #14
  br label %2

2:                                                ; preds = %0, %1
  ret ptr %calloc
}